target datalayout = "e-m:e-p270:32:32-p271:32:32-p272:64:64-i64:64-i128:128-f80:128-n8:16:32:64-S128"
target triple = "x86_64-pc-linux-gnu"

%struct.TupleTableSlotOps = type { i64, ptr, ptr, ptr, ptr, ptr, ptr, ptr, ptr, ptr, ptr, ptr, ptr }
%struct.GatherMergeState = type { %struct.PlanState, i8, i8, i8, i64, ptr, i32, ptr, ptr, i32, i32, ptr, ptr, ptr, ptr }
%struct.PlanState = type { i32, ptr, ptr, ptr, ptr, ptr, ptr, ptr, ptr, ptr, ptr, ptr, ptr, ptr, ptr, ptr, ptr, ptr, i8, ptr, ptr, ptr, ptr, ptr, i8, i8, i8, i8, i8, i8, i8, i8 }
%struct.Plan = type { i32, i32, double, double, double, i32, i8, i8, i8, i32, ptr, ptr, ptr, ptr, ptr, ptr, ptr }
%struct.GatherMerge = type { %struct.Plan, i32, i32, i32, ptr, ptr, ptr, ptr, ptr }
%struct.SortSupportData = type { ptr, i32, i8, i8, i16, ptr, ptr, i8, ptr, ptr, ptr }
%struct.Node = type { i32 }
%struct.GMReaderTupleBuffer = type { ptr, i32, i32, i8 }

@CurrentMemoryContext = external global ptr, align 8
@TTSOpsMinimalTuple = external constant %struct.TupleTableSlotOps, align 8

; Function Attrs: nounwind uwtable
define internal void @gather_merge_setup(ptr noundef %0) #0 {
  %2 = alloca ptr, align 8
  %3 = alloca ptr, align 8
  %4 = alloca i32, align 4
  %5 = alloca i32, align 4
  store ptr %0, ptr %2, align 8
  call void @llvm.lifetime.start.p0(i64 8, ptr %3) #6
  %6 = load ptr, ptr %2, align 8
  %7 = getelementptr inbounds nuw %struct.GatherMergeState, ptr %6, i32 0, i32 0
  %8 = getelementptr inbounds nuw %struct.PlanState, ptr %7, i32 0, i32 1
  %9 = load ptr, ptr %8, align 8
  store ptr %9, ptr %3, align 8
  call void @llvm.lifetime.start.p0(i64 4, ptr %4) #6
  %10 = load ptr, ptr %3, align 8
  %11 = getelementptr inbounds nuw %struct.GatherMerge, ptr %10, i32 0, i32 1
  %12 = load i32, ptr %11, align 8
  store i32 %12, ptr %4, align 4
  call void @llvm.lifetime.start.p0(i64 4, ptr %5) #6
  %13 = load i32, ptr %4, align 4
  %14 = add i32 %13, 1
  %15 = sext i32 %14 to i64
  %16 = mul i64 %15, 8
  %17 = call ptr @palloc0(i64 noundef %16)
  %18 = load ptr, ptr %2, align 8
  %19 = getelementptr inbounds nuw %struct.GatherMergeState, ptr %18, i32 0, i32 11
  store ptr %17, ptr %19, align 8
  %20 = load i32, ptr %4, align 4
  %21 = sext i32 %20 to i64
  %22 = mul i64 %21, 24
  %23 = call ptr @palloc0(i64 noundef %22)
  %24 = load ptr, ptr %2, align 8
  %25 = getelementptr inbounds nuw %struct.GatherMergeState, ptr %24, i32 0, i32 13
  store ptr %23, ptr %25, align 8
  store i32 0, ptr %5, align 4
  br label %26

26:                                               ; preds = %54, %1
  %27 = load i32, ptr %5, align 4
  %28 = load i32, ptr %4, align 4
  %29 = icmp slt i32 %27, %28
  br i1 %29, label %30, label %57

30:                                               ; preds = %26
  %31 = call ptr @palloc0(i64 noundef 80)
  %32 = load ptr, ptr %2, align 8
  %33 = getelementptr inbounds nuw %struct.GatherMergeState, ptr %32, i32 0, i32 13
  %34 = load ptr, ptr %33, align 8
  %35 = load i32, ptr %5, align 4
  %36 = sext i32 %35 to i64
  %37 = getelementptr inbounds %struct.GMReaderTupleBuffer, ptr %34, i64 %36
  %38 = getelementptr inbounds nuw %struct.GMReaderTupleBuffer, ptr %37, i32 0, i32 0
  store ptr %31, ptr %38, align 8
  %39 = load ptr, ptr %2, align 8
  %40 = getelementptr inbounds nuw %struct.GatherMergeState, ptr %39, i32 0, i32 0
  %41 = getelementptr inbounds nuw %struct.PlanState, ptr %40, i32 0, i32 2
  %42 = load ptr, ptr %41, align 8
  %43 = load ptr, ptr %2, align 8
  %44 = getelementptr inbounds nuw %struct.GatherMergeState, ptr %43, i32 0, i32 5
  %45 = load ptr, ptr %44, align 8
  %46 = call ptr @ExecInitExtraTupleSlot(ptr noundef %42, ptr noundef %45, ptr noundef @TTSOpsMinimalTuple)
  %47 = load ptr, ptr %2, align 8
  %48 = getelementptr inbounds nuw %struct.GatherMergeState, ptr %47, i32 0, i32 11
  %49 = load ptr, ptr %48, align 8
  %50 = load i32, ptr %5, align 4
  %51 = add i32 %50, 1
  %52 = sext i32 %51 to i64
  %53 = getelementptr inbounds ptr, ptr %49, i64 %52
  store ptr %46, ptr %53, align 8
  br label %54

54:                                               ; preds = %30
  %55 = load i32, ptr %5, align 4
  %56 = add i32 %55, 1
  store i32 %56, ptr %5, align 4
  br label %26, !llvm.loop !8

57:                                               ; preds = %26
  %58 = load i32, ptr %4, align 4
  %59 = add i32 %58, 1
  %60 = load ptr, ptr %2, align 8
  %61 = call ptr @binaryheap_allocate(i32 noundef %59, ptr noundef @heap_compare_slots, ptr noundef %60)
  %62 = load ptr, ptr %2, align 8
  %63 = getelementptr inbounds nuw %struct.GatherMergeState, ptr %62, i32 0, i32 14
  store ptr %61, ptr %63, align 8
  call void @llvm.lifetime.end.p0(i64 4, ptr %5) #6
  call void @llvm.lifetime.end.p0(i64 4, ptr %4) #6
  call void @llvm.lifetime.end.p0(i64 8, ptr %3) #6
  ret void
}

; Function Attrs: inlinehint nounwind uwtable
define internal ptr @newNode(i64 noundef %0, i32 noundef %1) #2 {
  %3 = alloca i64, align 8
  %4 = alloca i32, align 4
  %5 = alloca ptr, align 8
  store i64 %0, ptr %3, align 8
  store i32 %1, ptr %4, align 4
  call void @llvm.lifetime.start.p0(i64 8, ptr %5) #6
  %6 = load i64, ptr %3, align 8
  %7 = call ptr @palloc0(i64 noundef %6)
  store ptr %7, ptr %5, align 8
  %8 = load i32, ptr %4, align 4
  %9 = load ptr, ptr %5, align 8
  %10 = getelementptr inbounds nuw %struct.Node, ptr %9, i32 0, i32 0
  store i32 %8, ptr %10, align 4
  %11 = load ptr, ptr %5, align 8
  call void @llvm.lifetime.end.p0(i64 8, ptr %5) #6
  ret ptr %11
}

; Function Attrs: nounwind uwtable
define dso_local ptr @ExecInitGatherMerge(ptr noundef %0, ptr noundef %1, i32 noundef %2) #0 {
  %4 = alloca ptr, align 8
  %5 = alloca ptr, align 8
  %6 = alloca i32, align 4
  %7 = alloca ptr, align 8
  %8 = alloca ptr, align 8
  %9 = alloca ptr, align 8
  %10 = alloca i32, align 4
  %11 = alloca ptr, align 8
  store ptr %0, ptr %4, align 8
  store ptr %1, ptr %5, align 8
  store i32 %2, ptr %6, align 4
  call void @llvm.lifetime.start.p0(i64 8, ptr %7) #6
  call void @llvm.lifetime.start.p0(i64 8, ptr %8) #6
  call void @llvm.lifetime.start.p0(i64 8, ptr %9) #6
  %12 = call ptr @newNode(i64 noundef 288, i32 noundef 432)
  store ptr %12, ptr %7, align 8
  %13 = load ptr, ptr %4, align 8
  %14 = load ptr, ptr %7, align 8
  %15 = getelementptr inbounds nuw %struct.GatherMergeState, ptr %14, i32 0, i32 0
  %16 = getelementptr inbounds nuw %struct.PlanState, ptr %15, i32 0, i32 1
  store ptr %13, ptr %16, align 8
  %17 = load ptr, ptr %5, align 8
  %18 = load ptr, ptr %7, align 8
  %19 = getelementptr inbounds nuw %struct.GatherMergeState, ptr %18, i32 0, i32 0
  %20 = getelementptr inbounds nuw %struct.PlanState, ptr %19, i32 0, i32 2
  store ptr %17, ptr %20, align 8
  %21 = load ptr, ptr %7, align 8
  %22 = getelementptr inbounds nuw %struct.GatherMergeState, ptr %21, i32 0, i32 0
  %23 = getelementptr inbounds nuw %struct.PlanState, ptr %22, i32 0, i32 3
  store ptr @ExecGatherMerge, ptr %23, align 8
  %24 = load ptr, ptr %7, align 8
  %25 = getelementptr inbounds nuw %struct.GatherMergeState, ptr %24, i32 0, i32 1
  store i8 0, ptr %25, align 8
  %26 = load ptr, ptr %7, align 8
  %27 = getelementptr inbounds nuw %struct.GatherMergeState, ptr %26, i32 0, i32 2
  store i8 0, ptr %27, align 1
  %28 = load ptr, ptr %7, align 8
  %29 = getelementptr inbounds nuw %struct.GatherMergeState, ptr %28, i32 0, i32 4
  store i64 -1, ptr %29, align 8
  %30 = load ptr, ptr %5, align 8
  %31 = load ptr, ptr %7, align 8
  %32 = getelementptr inbounds nuw %struct.GatherMergeState, ptr %31, i32 0, i32 0
  call void @ExecAssignExprContext(ptr noundef %30, ptr noundef %32)
  %33 = load ptr, ptr %4, align 8
  %34 = getelementptr inbounds nuw %struct.Plan, ptr %33, i32 0, i32 12
  %35 = load ptr, ptr %34, align 8
  store ptr %35, ptr %8, align 8
  %36 = load ptr, ptr %8, align 8
  %37 = load ptr, ptr %5, align 8
  %38 = load i32, ptr %6, align 4
  %39 = call ptr @ExecInitNode(ptr noundef %36, ptr noundef %37, i32 noundef %38)
  %40 = load ptr, ptr %7, align 8
  %41 = getelementptr inbounds nuw %struct.PlanState, ptr %40, i32 0, i32 9
  store ptr %39, ptr %41, align 8
  %42 = load ptr, ptr %7, align 8
  %43 = getelementptr inbounds nuw %struct.GatherMergeState, ptr %42, i32 0, i32 0
  %44 = getelementptr inbounds nuw %struct.PlanState, ptr %43, i32 0, i32 29
  store i8 1, ptr %44, align 1
  %45 = load ptr, ptr %7, align 8
  %46 = getelementptr inbounds nuw %struct.GatherMergeState, ptr %45, i32 0, i32 0
  %47 = getelementptr inbounds nuw %struct.PlanState, ptr %46, i32 0, i32 25
  store i8 0, ptr %47, align 1
  %48 = load ptr, ptr %7, align 8
  %49 = getelementptr inbounds nuw %struct.PlanState, ptr %48, i32 0, i32 9
  %50 = load ptr, ptr %49, align 8
  %51 = call ptr @ExecGetResultType(ptr noundef %50)
  store ptr %51, ptr %9, align 8
  %52 = load ptr, ptr %9, align 8
  %53 = load ptr, ptr %7, align 8
  %54 = getelementptr inbounds nuw %struct.GatherMergeState, ptr %53, i32 0, i32 5
  store ptr %52, ptr %54, align 8
  %55 = load ptr, ptr %7, align 8
  %56 = getelementptr inbounds nuw %struct.GatherMergeState, ptr %55, i32 0, i32 0
  call void @ExecInitResultTypeTL(ptr noundef %56)
  %57 = load ptr, ptr %7, align 8
  %58 = getelementptr inbounds nuw %struct.GatherMergeState, ptr %57, i32 0, i32 0
  %59 = load ptr, ptr %9, align 8
  call void @ExecConditionalAssignProjectionInfo(ptr noundef %58, ptr noundef %59, i32 noundef -2)
  %60 = load ptr, ptr %7, align 8
  %61 = getelementptr inbounds nuw %struct.GatherMergeState, ptr %60, i32 0, i32 0
  %62 = getelementptr inbounds nuw %struct.PlanState, ptr %61, i32 0, i32 17
  %63 = load ptr, ptr %62, align 8
  %64 = icmp eq ptr %63, null
  br i1 %64, label %65, label %72

65:                                               ; preds = %3
  %66 = load ptr, ptr %7, align 8
  %67 = getelementptr inbounds nuw %struct.GatherMergeState, ptr %66, i32 0, i32 0
  %68 = getelementptr inbounds nuw %struct.PlanState, ptr %67, i32 0, i32 31
  store i8 1, ptr %68, align 1
  %69 = load ptr, ptr %7, align 8
  %70 = getelementptr inbounds nuw %struct.GatherMergeState, ptr %69, i32 0, i32 0
  %71 = getelementptr inbounds nuw %struct.PlanState, ptr %70, i32 0, i32 27
  store i8 0, ptr %71, align 1
  br label %72

72:                                               ; preds = %65, %3
  %73 = load ptr, ptr %4, align 8
  %74 = getelementptr inbounds nuw %struct.GatherMerge, ptr %73, i32 0, i32 3
  %75 = load i32, ptr %74, align 8
  %76 = icmp ne i32 %75, 0
  br i1 %76, label %77, label %150

77:                                               ; preds = %72
  call void @llvm.lifetime.start.p0(i64 4, ptr %10) #6
  %78 = load ptr, ptr %4, align 8
  %79 = getelementptr inbounds nuw %struct.GatherMerge, ptr %78, i32 0, i32 3
  %80 = load i32, ptr %79, align 8
  %81 = load ptr, ptr %7, align 8
  %82 = getelementptr inbounds nuw %struct.GatherMergeState, ptr %81, i32 0, i32 6
  store i32 %80, ptr %82, align 8
  %83 = load ptr, ptr %4, align 8
  %84 = getelementptr inbounds nuw %struct.GatherMerge, ptr %83, i32 0, i32 3
  %85 = load i32, ptr %84, align 8
  %86 = sext i32 %85 to i64
  %87 = mul i64 64, %86
  %88 = call ptr @palloc0(i64 noundef %87)
  %89 = load ptr, ptr %7, align 8
  %90 = getelementptr inbounds nuw %struct.GatherMergeState, ptr %89, i32 0, i32 7
  store ptr %88, ptr %90, align 8
  store i32 0, ptr %10, align 4
  br label %91

91:                                               ; preds = %146, %77
  %92 = load i32, ptr %10, align 4
  %93 = load ptr, ptr %4, align 8
  %94 = getelementptr inbounds nuw %struct.GatherMerge, ptr %93, i32 0, i32 3
  %95 = load i32, ptr %94, align 8
  %96 = icmp slt i32 %92, %95
  br i1 %96, label %97, label %149

97:                                               ; preds = %91
  call void @llvm.lifetime.start.p0(i64 8, ptr %11) #6
  %98 = load ptr, ptr %7, align 8
  %99 = getelementptr inbounds nuw %struct.GatherMergeState, ptr %98, i32 0, i32 7
  %100 = load ptr, ptr %99, align 8
  %101 = load i32, ptr %10, align 4
  %102 = sext i32 %101 to i64
  %103 = getelementptr inbounds %struct.SortSupportData, ptr %100, i64 %102
  store ptr %103, ptr %11, align 8
  %104 = load ptr, ptr @CurrentMemoryContext, align 8
  %105 = load ptr, ptr %11, align 8
  %106 = getelementptr inbounds nuw %struct.SortSupportData, ptr %105, i32 0, i32 0
  store ptr %104, ptr %106, align 8
  %107 = load ptr, ptr %4, align 8
  %108 = getelementptr inbounds nuw %struct.GatherMerge, ptr %107, i32 0, i32 6
  %109 = load ptr, ptr %108, align 8
  %110 = load i32, ptr %10, align 4
  %111 = sext i32 %110 to i64
  %112 = getelementptr inbounds i32, ptr %109, i64 %111
  %113 = load i32, ptr %112, align 4
  %114 = load ptr, ptr %11, align 8
  %115 = getelementptr inbounds nuw %struct.SortSupportData, ptr %114, i32 0, i32 1
  store i32 %113, ptr %115, align 8
  %116 = load ptr, ptr %4, align 8
  %117 = getelementptr inbounds nuw %struct.GatherMerge, ptr %116, i32 0, i32 7
  %118 = load ptr, ptr %117, align 8
  %119 = load i32, ptr %10, align 4
  %120 = sext i32 %119 to i64
  %121 = getelementptr inbounds i8, ptr %118, i64 %120
  %122 = load i8, ptr %121, align 1, !range !4, !noundef !5
  %123 = trunc i8 %122 to i1
  %124 = load ptr, ptr %11, align 8
  %125 = getelementptr inbounds nuw %struct.SortSupportData, ptr %124, i32 0, i32 3
  %126 = zext i1 %123 to i8
  store i8 %126, ptr %125, align 1
  %127 = load ptr, ptr %4, align 8
  %128 = getelementptr inbounds nuw %struct.GatherMerge, ptr %127, i32 0, i32 4
  %129 = load ptr, ptr %128, align 8
  %130 = load i32, ptr %10, align 4
  %131 = sext i32 %130 to i64
  %132 = getelementptr inbounds i16, ptr %129, i64 %131
  %133 = load i16, ptr %132, align 2
  %134 = load ptr, ptr %11, align 8
  %135 = getelementptr inbounds nuw %struct.SortSupportData, ptr %134, i32 0, i32 4
  store i16 %133, ptr %135, align 2
  %136 = load ptr, ptr %11, align 8
  %137 = getelementptr inbounds nuw %struct.SortSupportData, ptr %136, i32 0, i32 7
  store i8 0, ptr %137, align 8
  %138 = load ptr, ptr %4, align 8
  %139 = getelementptr inbounds nuw %struct.GatherMerge, ptr %138, i32 0, i32 5
  %140 = load ptr, ptr %139, align 8
  %141 = load i32, ptr %10, align 4
  %142 = sext i32 %141 to i64
  %143 = getelementptr inbounds i32, ptr %140, i64 %142
  %144 = load i32, ptr %143, align 4
  %145 = load ptr, ptr %11, align 8
  call void @PrepareSortSupportFromOrderingOp(i32 noundef %144, ptr noundef %145)
  call void @llvm.lifetime.end.p0(i64 8, ptr %11) #6
  br label %146

146:                                              ; preds = %97
  %147 = load i32, ptr %10, align 4
  %148 = add i32 %147, 1
  store i32 %148, ptr %10, align 4
  br label %91, !llvm.loop !6

149:                                              ; preds = %91
  call void @llvm.lifetime.end.p0(i64 4, ptr %10) #6
  br label %150

150:                                              ; preds = %149, %72
  %151 = load ptr, ptr %7, align 8
  call void @gather_merge_setup(ptr noundef %151)
  %152 = load ptr, ptr %7, align 8
  call void @llvm.lifetime.end.p0(i64 8, ptr %9) #6
  call void @llvm.lifetime.end.p0(i64 8, ptr %8) #6
  call void @llvm.lifetime.end.p0(i64 8, ptr %7) #6
  ret ptr %152
}