; Function Attrs: nounwind uwtable
define dso_local noundef ptr @ExecInitGatherMerge(ptr noundef %0, ptr noundef %1, i32 noundef %2) local_unnamed_addr #0 {
  %4 = tail call noundef ptr @palloc0(i64 noundef 288) #4
  store i32 432, ptr %4, align 4
  %5 = getelementptr inbounds nuw i8, ptr %4, i64 8
  store ptr %0, ptr %5, align 8
  %6 = getelementptr inbounds nuw i8, ptr %4, i64 16
  store ptr %1, ptr %6, align 8
  %7 = getelementptr inbounds nuw i8, ptr %4, i64 24
  store ptr @ExecGatherMerge, ptr %7, align 8
  %8 = getelementptr inbounds nuw i8, ptr %4, i64 200
  store i8 0, ptr %8, align 8
  %9 = getelementptr inbounds nuw i8, ptr %4, i64 201
  store i8 0, ptr %9, align 1
  %10 = getelementptr inbounds nuw i8, ptr %4, i64 208
  store i64 -1, ptr %10, align 8
  tail call void @ExecAssignExprContext(ptr noundef %1, ptr noundef %4) #4
  %11 = getelementptr inbounds nuw i8, ptr %0, i64 64
  %12 = load ptr, ptr %11, align 8
  %13 = tail call ptr @ExecInitNode(ptr noundef %12, ptr noundef %1, i32 noundef %2) #4
  %14 = getelementptr inbounds nuw i8, ptr %4, i64 72
  store ptr %13, ptr %14, align 8
  %15 = getelementptr inbounds nuw i8, ptr %4, i64 197
  store i8 1, ptr %15, align 1
  %16 = getelementptr inbounds nuw i8, ptr %4, i64 193
  store i8 0, ptr %16, align 1
  %17 = tail call ptr @ExecGetResultType(ptr noundef %13) #4
  %18 = getelementptr inbounds nuw i8, ptr %4, i64 216
  store ptr %17, ptr %18, align 8
  tail call void @ExecInitResultTypeTL(ptr noundef %4) #4
  tail call void @ExecConditionalAssignProjectionInfo(ptr noundef %4, ptr noundef %17, i32 noundef -2) #4
  %19 = getelementptr inbounds nuw i8, ptr %4, i64 136
  %20 = load ptr, ptr %19, align 8
  %21 = icmp eq ptr %20, null
  br i1 %21, label %22, label %25

22:                                               ; preds = %3
  %23 = getelementptr inbounds nuw i8, ptr %4, i64 199
  store i8 1, ptr %23, align 1
  %24 = getelementptr inbounds nuw i8, ptr %4, i64 195
  store i8 0, ptr %24, align 1
  br label %25

25:                                               ; preds = %22, %3
  %26 = getelementptr inbounds nuw i8, ptr %0, i64 112
  %27 = load i32, ptr %26, align 8
  %.not = icmp eq i32 %27, 0
  br i1 %.not, label %.loopexit, label %28

28:                                               ; preds = %25
  %29 = getelementptr inbounds nuw i8, ptr %4, i64 224
  store i32 %27, ptr %29, align 8
  %30 = load i32, ptr %26, align 8
  %31 = sext i32 %30 to i64
  %32 = shl nsw i64 %31, 6
  %33 = tail call ptr @palloc0(i64 noundef %32) #4
  %34 = getelementptr inbounds nuw i8, ptr %4, i64 232
  store ptr %33, ptr %34, align 8
  %35 = load i32, ptr %26, align 8
  %36 = icmp sgt i32 %35, 0
  br i1 %36, label %.lr.ph, label %.loopexit

.lr.ph:                                           ; preds = %28
  %37 = getelementptr inbounds nuw i8, ptr %0, i64 136
  %38 = getelementptr inbounds nuw i8, ptr %0, i64 144
  %39 = getelementptr inbounds nuw i8, ptr %0, i64 120
  %40 = getelementptr inbounds nuw i8, ptr %0, i64 128
  br label %41

41:                                               ; preds = %.lr.ph, %41
  %indvars.iv = phi i64 [ 0, %.lr.ph ], [ %indvars.iv.next, %41 ]
  %42 = load ptr, ptr %34, align 8
  %43 = getelementptr inbounds nuw %struct.SortSupportData, ptr %42, i64 %indvars.iv
  %44 = load ptr, ptr @CurrentMemoryContext, align 8
  store ptr %44, ptr %43, align 8
  %45 = load ptr, ptr %37, align 8
  %46 = getelementptr inbounds nuw i32, ptr %45, i64 %indvars.iv
  %47 = load i32, ptr %46, align 4
  %48 = getelementptr inbounds nuw i8, ptr %43, i64 8
  store i32 %47, ptr %48, align 8
  %49 = load ptr, ptr %38, align 8
  %50 = getelementptr inbounds nuw i8, ptr %49, i64 %indvars.iv
  %51 = load i8, ptr %50, align 1, !range !4, !noundef !5
  %52 = getelementptr inbounds nuw i8, ptr %43, i64 13
  store i8 %51, ptr %52, align 1
  %53 = load ptr, ptr %39, align 8
  %54 = getelementptr inbounds nuw i16, ptr %53, i64 %indvars.iv
  %55 = load i16, ptr %54, align 2
  %56 = getelementptr inbounds nuw i8, ptr %43, i64 14
  store i16 %55, ptr %56, align 2
  %57 = getelementptr inbounds nuw i8, ptr %43, i64 32
  store i8 0, ptr %57, align 8
  %58 = load ptr, ptr %40, align 8
  %59 = getelementptr inbounds nuw i32, ptr %58, i64 %indvars.iv
  %60 = load i32, ptr %59, align 4
  tail call void @PrepareSortSupportFromOrderingOp(i32 noundef %60, ptr noundef nonnull %43) #4
  %indvars.iv.next = add nuw nsw i64 %indvars.iv, 1
  %61 = load i32, ptr %26, align 8
  %62 = sext i32 %61 to i64
  %63 = icmp slt i64 %indvars.iv.next, %62
  br i1 %63, label %41, label %.loopexit, !llvm.loop !6

.loopexit:                                        ; preds = %41, %28, %25
  %64 = load ptr, ptr %5, align 8
  %65 = getelementptr inbounds nuw i8, ptr %64, i64 104
  %66 = load i32, ptr %65, align 8
  %67 = add i32 %66, 1
  %68 = sext i32 %67 to i64
  %69 = shl nsw i64 %68, 3
  %70 = tail call ptr @palloc0(i64 noundef %69) #4
  %71 = getelementptr inbounds nuw i8, ptr %4, i64 256
  store ptr %70, ptr %71, align 8
  %72 = sext i32 %66 to i64
  %73 = mul nsw i64 %72, 24
  %74 = tail call ptr @palloc0(i64 noundef %73) #4
  %75 = getelementptr inbounds nuw i8, ptr %4, i64 272
  store ptr %74, ptr %75, align 8
  %76 = icmp sgt i32 %66, 0
  br i1 %76, label %.lr.ph.i, label %gather_merge_setup.exit

.lr.ph.i:                                         ; preds = %.loopexit
  %wide.trip.count.i = zext nneg i32 %66 to i64
  br label %77

77:                                               ; preds = %77, %.lr.ph.i
  %indvars.iv.i = phi i64 [ 0, %.lr.ph.i ], [ %indvars.iv.next.i, %77 ]
  %78 = tail call ptr @palloc0(i64 noundef 80) #4
  %79 = load ptr, ptr %75, align 8
  %80 = getelementptr inbounds nuw %struct.GMReaderTupleBuffer, ptr %79, i64 %indvars.iv.i
  store ptr %78, ptr %80, align 8
  %81 = load ptr, ptr %6, align 8
  %82 = load ptr, ptr %18, align 8
  %83 = tail call ptr @ExecInitExtraTupleSlot(ptr noundef %81, ptr noundef %82, ptr noundef nonnull @TTSOpsMinimalTuple) #4
  %84 = load ptr, ptr %71, align 8
  %indvars.iv.next.i = add nuw nsw i64 %indvars.iv.i, 1
  %85 = getelementptr inbounds nuw ptr, ptr %84, i64 %indvars.iv.next.i
  store ptr %83, ptr %85, align 8
  %exitcond.not.i = icmp eq i64 %indvars.iv.next.i, %wide.trip.count.i
  br i1 %exitcond.not.i, label %gather_merge_setup.exit, label %77, !llvm.loop !8

gather_merge_setup.exit:                          ; preds = %77, %.loopexit
  %86 = tail call ptr @binaryheap_allocate(i32 noundef %67, ptr noundef nonnull @heap_compare_slots, ptr noundef nonnull %4) #4
  %87 = getelementptr inbounds nuw i8, ptr %4, i64 280
  store ptr %86, ptr %87, align 8
  ret ptr %4
}